target datalayout = "e-m:e-p270:32:32-p271:32:32-p272:64:64-i64:64-i128:128-f80:128-n8:16:32:64-S128"
target triple = "x86_64-pc-linux-gnu"

%struct.CRYPTO_REF_COUNT = type { i32 }
%struct.crypto_ex_data_st = type { ptr, ptr }
%struct.OSSL_TIME = type { i64 }
%struct.ssl_session_st = type { i32, i64, [64 x i8], [512 x i8], i64, [32 x i8], i64, [32 x i8], ptr, ptr, i32, ptr, ptr, ptr, i64, %struct.OSSL_TIME, %struct.OSSL_TIME, %struct.OSSL_TIME, i32, ptr, i64, i32, %struct.crypto_ex_data_st, %struct.anon.5, ptr, ptr, i64, i32, ptr, ptr, ptr, %struct.CRYPTO_REF_COUNT }
%struct.anon.5 = type { ptr, ptr, i64, i64, i32, i32, ptr, i64, i8 }

; Function Attrs: nounwind uwtable
define i64 @SSL_SESSION_get_master_key(ptr noundef %0, ptr noundef %1, i64 noundef %2) #0 {
  %4 = alloca i64, align 8
  %5 = alloca ptr, align 8
  %6 = alloca ptr, align 8
  %7 = alloca i64, align 8
  store ptr %0, ptr %5, align 8, !tbaa !277
  store ptr %1, ptr %6, align 8, !tbaa !8
  store i64 %2, ptr %7, align 8, !tbaa !10
  %8 = load i64, ptr %7, align 8, !tbaa !10
  %9 = icmp eq i64 %8, 0
  br i1 %9, label %10, label %14

10:                                               ; preds = %3
  %11 = load ptr, ptr %5, align 8, !tbaa !277
  %12 = getelementptr inbounds nuw %struct.ssl_session_st, ptr %11, i32 0, i32 1
  %13 = load i64, ptr %12, align 8, !tbaa !535
  store i64 %13, ptr %4, align 8
  br label %31

14:                                               ; preds = %3
  %15 = load i64, ptr %7, align 8, !tbaa !10
  %16 = load ptr, ptr %5, align 8, !tbaa !277
  %17 = getelementptr inbounds nuw %struct.ssl_session_st, ptr %16, i32 0, i32 1
  %18 = load i64, ptr %17, align 8, !tbaa !535
  %19 = icmp ugt i64 %15, %18
  br i1 %19, label %20, label %24

20:                                               ; preds = %14
  %21 = load ptr, ptr %5, align 8, !tbaa !277
  %22 = getelementptr inbounds nuw %struct.ssl_session_st, ptr %21, i32 0, i32 1
  %23 = load i64, ptr %22, align 8, !tbaa !535
  store i64 %23, ptr %7, align 8, !tbaa !10
  br label %24

24:                                               ; preds = %20, %14
  %25 = load ptr, ptr %6, align 8, !tbaa !8
  %26 = load ptr, ptr %5, align 8, !tbaa !277
  %27 = getelementptr inbounds nuw %struct.ssl_session_st, ptr %26, i32 0, i32 3
  %28 = getelementptr inbounds [512 x i8], ptr %27, i64 0, i64 0
  %29 = load i64, ptr %7, align 8, !tbaa !10
  call void @llvm.memcpy.p0.p0.i64(ptr align 1 %25, ptr align 8 %28, i64 %29, i1 false)
  %30 = load i64, ptr %7, align 8, !tbaa !10
  store i64 %30, ptr %4, align 8
  br label %31

31:                                               ; preds = %24, %10
  %32 = load i64, ptr %4, align 8
  ret i64 %32
}