; Function Attrs: mustprogress nofree norecurse nosync nounwind willreturn memory(argmem: readwrite) uwtable
define i64 @SSL_SESSION_get_master_key(ptr noundef readonly captures(none) %0, ptr noundef writeonly captures(none) %1, i64 noundef %2) local_unnamed_addr #7 {
  %4 = icmp eq i64 %2, 0
  %5 = getelementptr inbounds nuw i8, ptr %0, i64 8
  %6 = load i64, ptr %5, align 8, !tbaa !476
  br i1 %4, label %9, label %7

7:                                                ; preds = %3
  %spec.select = tail call i64 @llvm.umin.i64(i64 %2, i64 %6)
  %8 = getelementptr inbounds nuw i8, ptr %0, i64 80
  tail call void @llvm.memcpy.p0.p0.i64(ptr align 1 %1, ptr nonnull align 8 %8, i64 %spec.select, i1 false)
  br label %9

9:                                                ; preds = %3, %7
  %.09 = phi i64 [ %spec.select, %7 ], [ %6, %3 ]
  ret i64 %.09
}